target datalayout = "e-m:e-p270:32:32-p271:32:32-p272:64:64-i64:64-i128:128-f80:128-n8:16:32:64-S128"
target triple = "x86_64-pc-linux-gnu"

; Function Attrs: mustprogress nounwind uwtable
define internal noundef i32 @_ZL17changeAbsFunctionj17AbsoluteValueKind(i32 noundef %0, i32 noundef %1) #0 {
  %3 = alloca i32, align 4
  %4 = alloca i32, align 4
  %5 = alloca i32, align 4
  store i32 %0, ptr %4, align 4
  store i32 %1, ptr %5, align 4
  %6 = load i32, ptr %5, align 4
  switch i32 %6, label %22 [
    i32 0, label %7
    i32 1, label %12
    i32 2, label %17
  ]

7:                                                ; preds = %2
  %8 = load i32, ptr %4, align 4
  switch i32 %8, label %9 [
    i32 548, label %10
    i32 550, label %10
    i32 552, label %10
    i32 237, label %10
    i32 239, label %10
    i32 241, label %10
    i32 549, label %11
    i32 551, label %11
    i32 553, label %11
    i32 238, label %11
    i32 240, label %11
    i32 242, label %11
  ]

9:                                                ; preds = %7
  store i32 0, ptr %3, align 4
  br label %23

10:                                               ; preds = %7, %7, %7, %7, %7, %7
  store i32 92, ptr %3, align 4
  br label %23

11:                                               ; preds = %7, %7, %7, %7, %7, %7
  store i32 93, ptr %3, align 4
  br label %23

12:                                               ; preds = %2
  %13 = load i32, ptr %4, align 4
  switch i32 %13, label %14 [
    i32 92, label %15
    i32 94, label %15
    i32 96, label %15
    i32 237, label %15
    i32 239, label %15
    i32 241, label %15
    i32 93, label %16
    i32 95, label %16
    i32 97, label %16
    i32 238, label %16
    i32 240, label %16
    i32 242, label %16
  ]

14:                                               ; preds = %12
  store i32 0, ptr %3, align 4
  br label %23

15:                                               ; preds = %12, %12, %12, %12, %12, %12
  store i32 548, ptr %3, align 4
  br label %23

16:                                               ; preds = %12, %12, %12, %12, %12, %12
  store i32 549, ptr %3, align 4
  br label %23

17:                                               ; preds = %2
  %18 = load i32, ptr %4, align 4
  switch i32 %18, label %19 [
    i32 92, label %20
    i32 94, label %20
    i32 96, label %20
    i32 548, label %20
    i32 550, label %20
    i32 552, label %20
    i32 93, label %21
    i32 95, label %21
    i32 97, label %21
    i32 549, label %21
    i32 551, label %21
    i32 553, label %21
  ]

19:                                               ; preds = %17
  store i32 0, ptr %3, align 4
  br label %23

20:                                               ; preds = %17, %17, %17, %17, %17, %17
  store i32 237, ptr %3, align 4
  br label %23

21:                                               ; preds = %17, %17, %17, %17, %17, %17
  store i32 238, ptr %3, align 4
  br label %23

22:                                               ; preds = %2
  unreachable

23:                                               ; preds = %21, %20, %19, %16, %15, %14, %11, %10, %9
  %24 = load i32, ptr %3, align 4
  ret i32 %24
}