; Function Attrs: mustprogress nofree norecurse nosync nounwind willreturn memory(none) uwtable
define internal fastcc noundef range(i32 0, 550) i32 @_ZL17changeAbsFunctionj17AbsoluteValueKind(i32 noundef %0, i32 noundef %1) unnamed_addr #8 {
  switch i32 %1, label %12 [
    i32 0, label %3
    i32 1, label %6
    i32 2, label %9
  ]

3:                                                ; preds = %2
  switch i32 %0, label %13 [
    i32 548, label %4
    i32 550, label %4
    i32 552, label %4
    i32 237, label %4
    i32 239, label %4
    i32 241, label %4
    i32 549, label %5
    i32 551, label %5
    i32 553, label %5
    i32 238, label %5
    i32 240, label %5
    i32 242, label %5
  ]

4:                                                ; preds = %3, %3, %3, %3, %3, %3
  br label %13

5:                                                ; preds = %3, %3, %3, %3, %3, %3
  br label %13

6:                                                ; preds = %2
  switch i32 %0, label %13 [
    i32 92, label %7
    i32 94, label %7
    i32 96, label %7
    i32 237, label %7
    i32 239, label %7
    i32 241, label %7
    i32 93, label %8
    i32 95, label %8
    i32 97, label %8
    i32 238, label %8
    i32 240, label %8
    i32 242, label %8
  ]

7:                                                ; preds = %6, %6, %6, %6, %6, %6
  br label %13

8:                                                ; preds = %6, %6, %6, %6, %6, %6
  br label %13

9:                                                ; preds = %2
  switch i32 %0, label %13 [
    i32 92, label %10
    i32 94, label %10
    i32 96, label %10
    i32 548, label %10
    i32 550, label %10
    i32 552, label %10
    i32 93, label %11
    i32 95, label %11
    i32 97, label %11
    i32 549, label %11
    i32 551, label %11
    i32 553, label %11
  ]

10:                                               ; preds = %9, %9, %9, %9, %9, %9
  br label %13

11:                                               ; preds = %9, %9, %9, %9, %9, %9
  br label %13

12:                                               ; preds = %2
  unreachable

13:                                               ; preds = %9, %6, %3, %11, %10, %8, %7, %5, %4
  %.0 = phi i32 [ 238, %11 ], [ 237, %10 ], [ 549, %8 ], [ 548, %7 ], [ 93, %5 ], [ 92, %4 ], [ 0, %3 ], [ 0, %6 ], [ 0, %9 ]
  ret i32 %.0
}